target datalayout = "e-m:e-p270:32:32-p271:32:32-p272:64:64-i64:64-i128:128-f80:128-n8:16:32:64-S128"
target triple = "x86_64-pc-linux-gnu"

%struct.Node = type { i32 }
%struct.Expr = type { i32 }
%struct.List = type { i32, i32, i32, ptr, [0 x %union.ListCell] }
%union.ListCell = type { ptr }
%struct.RestrictInfo = type { i32, ptr, i8, i8, i8, i8, i8, i8, i32, i32, i32, ptr, ptr, ptr, ptr, ptr, ptr, ptr, i32, ptr, %struct.QualCost, double, double, ptr, ptr, ptr, ptr, ptr, ptr, i8, i32, double, double, double, double, i32, i32 }
%struct.QualCost = type { double, double }
%struct.OpExpr = type { %struct.Expr, i32, i32, i32, i8, i32, i32, ptr, i32 }

; Function Attrs: inlinehint nounwind uwtable
define internal ptr @list_nth_cell(ptr noundef %0, i32 noundef %1) #1 {
  %3 = alloca ptr, align 8
  %4 = alloca i32, align 4
  store ptr %0, ptr %3, align 8
  store i32 %1, ptr %4, align 4
  %5 = load ptr, ptr %3, align 8
  %6 = getelementptr inbounds nuw %struct.List, ptr %5, i32 0, i32 3
  %7 = load ptr, ptr %6, align 8
  %8 = load i32, ptr %4, align 4
  %9 = sext i32 %8 to i64
  %10 = getelementptr inbounds %union.ListCell, ptr %7, i64 %9
  ret ptr %10
}

; Function Attrs: inlinehint nounwind uwtable
define internal ptr @newNode(i64 noundef %0, i32 noundef %1) #1 {
  %3 = alloca i64, align 8
  %4 = alloca i32, align 4
  %5 = alloca ptr, align 8
  store i64 %0, ptr %3, align 8
  store i32 %1, ptr %4, align 4
  call void @llvm.lifetime.start.p0(i64 8, ptr %5) #6
  %6 = load i64, ptr %3, align 8
  %7 = call ptr @palloc0(i64 noundef %6)
  store ptr %7, ptr %5, align 8
  %8 = load i32, ptr %4, align 4
  %9 = load ptr, ptr %5, align 8
  %10 = getelementptr inbounds nuw %struct.Node, ptr %9, i32 0, i32 0
  store i32 %8, ptr %10, align 4
  %11 = load ptr, ptr %5, align 8
  call void @llvm.lifetime.end.p0(i64 8, ptr %5) #6
  ret ptr %11
}

; Function Attrs: nounwind uwtable
define dso_local ptr @commute_restrictinfo(ptr noundef %0, i32 noundef %1) #0 {
  %3 = alloca ptr, align 8
  %4 = alloca i32, align 4
  %5 = alloca ptr, align 8
  %6 = alloca ptr, align 8
  %7 = alloca ptr, align 8
  %8 = alloca %union.ListCell, align 8
  %9 = alloca %union.ListCell, align 8
  store ptr %0, ptr %3, align 8
  store i32 %1, ptr %4, align 4
  call void @llvm.lifetime.start.p0(i64 8, ptr %5) #6
  call void @llvm.lifetime.start.p0(i64 8, ptr %6) #6
  call void @llvm.lifetime.start.p0(i64 8, ptr %7) #6
  %10 = load ptr, ptr %3, align 8
  %11 = getelementptr inbounds nuw %struct.RestrictInfo, ptr %10, i32 0, i32 1
  %12 = load ptr, ptr %11, align 8
  store ptr %12, ptr %7, align 8
  %13 = call ptr @newNode(i64 noundef 48, i32 noundef 17)
  store ptr %13, ptr %6, align 8
  %14 = load ptr, ptr %6, align 8
  %15 = load ptr, ptr %7, align 8
  call void @llvm.memcpy.p0.p0.i64(ptr align 8 %14, ptr align 8 %15, i64 48, i1 false)
  %16 = load i32, ptr %4, align 4
  %17 = load ptr, ptr %6, align 8
  %18 = getelementptr inbounds nuw %struct.OpExpr, ptr %17, i32 0, i32 1
  store i32 %16, ptr %18, align 4
  %19 = load ptr, ptr %6, align 8
  %20 = getelementptr inbounds nuw %struct.OpExpr, ptr %19, i32 0, i32 2
  store i32 0, ptr %20, align 8
  %21 = load ptr, ptr %7, align 8
  %22 = getelementptr inbounds nuw %struct.OpExpr, ptr %21, i32 0, i32 7
  %23 = load ptr, ptr %22, align 8
  %24 = call ptr @list_nth_cell(ptr noundef %23, i32 noundef 1)
  %25 = load ptr, ptr %24, align 8
  store ptr %25, ptr %8, align 8
  %26 = load ptr, ptr %7, align 8
  %27 = getelementptr inbounds nuw %struct.OpExpr, ptr %26, i32 0, i32 7
  %28 = load ptr, ptr %27, align 8
  %29 = call ptr @list_nth_cell(ptr noundef %28, i32 noundef 0)
  %30 = load ptr, ptr %29, align 8
  store ptr %30, ptr %9, align 8
  %31 = getelementptr inbounds nuw %union.ListCell, ptr %8, i32 0, i32 0
  %32 = load ptr, ptr %31, align 8
  %33 = getelementptr inbounds nuw %union.ListCell, ptr %9, i32 0, i32 0
  %34 = load ptr, ptr %33, align 8
  %35 = call ptr @list_make2_impl(i32 noundef 1, ptr %32, ptr %34)
  %36 = load ptr, ptr %6, align 8
  %37 = getelementptr inbounds nuw %struct.OpExpr, ptr %36, i32 0, i32 7
  store ptr %35, ptr %37, align 8
  %38 = call ptr @newNode(i64 noundef 240, i32 noundef 317)
  store ptr %38, ptr %5, align 8
  %39 = load ptr, ptr %5, align 8
  %40 = load ptr, ptr %3, align 8
  call void @llvm.memcpy.p0.p0.i64(ptr align 8 %39, ptr align 8 %40, i64 240, i1 false)
  %41 = load ptr, ptr %6, align 8
  %42 = load ptr, ptr %5, align 8
  %43 = getelementptr inbounds nuw %struct.RestrictInfo, ptr %42, i32 0, i32 1
  store ptr %41, ptr %43, align 8
  %44 = load ptr, ptr %3, align 8
  %45 = getelementptr inbounds nuw %struct.RestrictInfo, ptr %44, i32 0, i32 16
  %46 = load ptr, ptr %45, align 8
  %47 = load ptr, ptr %5, align 8
  %48 = getelementptr inbounds nuw %struct.RestrictInfo, ptr %47, i32 0, i32 15
  store ptr %46, ptr %48, align 8
  %49 = load ptr, ptr %3, align 8
  %50 = getelementptr inbounds nuw %struct.RestrictInfo, ptr %49, i32 0, i32 15
  %51 = load ptr, ptr %50, align 8
  %52 = load ptr, ptr %5, align 8
  %53 = getelementptr inbounds nuw %struct.RestrictInfo, ptr %52, i32 0, i32 16
  store ptr %51, ptr %53, align 8
  %54 = load ptr, ptr %3, align 8
  %55 = getelementptr inbounds nuw %struct.RestrictInfo, ptr %54, i32 0, i32 25
  %56 = load ptr, ptr %55, align 8
  %57 = load ptr, ptr %5, align 8
  %58 = getelementptr inbounds nuw %struct.RestrictInfo, ptr %57, i32 0, i32 24
  store ptr %56, ptr %58, align 8
  %59 = load ptr, ptr %3, align 8
  %60 = getelementptr inbounds nuw %struct.RestrictInfo, ptr %59, i32 0, i32 24
  %61 = load ptr, ptr %60, align 8
  %62 = load ptr, ptr %5, align 8
  %63 = getelementptr inbounds nuw %struct.RestrictInfo, ptr %62, i32 0, i32 25
  store ptr %61, ptr %63, align 8
  %64 = load ptr, ptr %3, align 8
  %65 = getelementptr inbounds nuw %struct.RestrictInfo, ptr %64, i32 0, i32 27
  %66 = load ptr, ptr %65, align 8
  %67 = load ptr, ptr %5, align 8
  %68 = getelementptr inbounds nuw %struct.RestrictInfo, ptr %67, i32 0, i32 26
  store ptr %66, ptr %68, align 8
  %69 = load ptr, ptr %3, align 8
  %70 = getelementptr inbounds nuw %struct.RestrictInfo, ptr %69, i32 0, i32 26
  %71 = load ptr, ptr %70, align 8
  %72 = load ptr, ptr %5, align 8
  %73 = getelementptr inbounds nuw %struct.RestrictInfo, ptr %72, i32 0, i32 27
  store ptr %71, ptr %73, align 8
  %74 = load ptr, ptr %5, align 8
  %75 = getelementptr inbounds nuw %struct.RestrictInfo, ptr %74, i32 0, i32 28
  store ptr null, ptr %75, align 8
  %76 = load ptr, ptr %3, align 8
  %77 = getelementptr inbounds nuw %struct.RestrictInfo, ptr %76, i32 0, i32 30
  %78 = load i32, ptr %77, align 4
  %79 = load ptr, ptr %7, align 8
  %80 = getelementptr inbounds nuw %struct.OpExpr, ptr %79, i32 0, i32 1
  %81 = load i32, ptr %80, align 4
  %82 = icmp eq i32 %78, %81
  br i1 %82, label %83, label %87

83:                                               ; preds = %2
  %84 = load i32, ptr %4, align 4
  %85 = load ptr, ptr %5, align 8
  %86 = getelementptr inbounds nuw %struct.RestrictInfo, ptr %85, i32 0, i32 30
  store i32 %84, ptr %86, align 4
  br label %90

87:                                               ; preds = %2
  %88 = load ptr, ptr %5, align 8
  %89 = getelementptr inbounds nuw %struct.RestrictInfo, ptr %88, i32 0, i32 30
  store i32 0, ptr %89, align 4
  br label %90

90:                                               ; preds = %87, %83
  %91 = load ptr, ptr %3, align 8
  %92 = getelementptr inbounds nuw %struct.RestrictInfo, ptr %91, i32 0, i32 32
  %93 = load double, ptr %92, align 8
  %94 = load ptr, ptr %5, align 8
  %95 = getelementptr inbounds nuw %struct.RestrictInfo, ptr %94, i32 0, i32 31
  store double %93, ptr %95, align 8
  %96 = load ptr, ptr %3, align 8
  %97 = getelementptr inbounds nuw %struct.RestrictInfo, ptr %96, i32 0, i32 31
  %98 = load double, ptr %97, align 8
  %99 = load ptr, ptr %5, align 8
  %100 = getelementptr inbounds nuw %struct.RestrictInfo, ptr %99, i32 0, i32 32
  store double %98, ptr %100, align 8
  %101 = load ptr, ptr %3, align 8
  %102 = getelementptr inbounds nuw %struct.RestrictInfo, ptr %101, i32 0, i32 34
  %103 = load double, ptr %102, align 8
  %104 = load ptr, ptr %5, align 8
  %105 = getelementptr inbounds nuw %struct.RestrictInfo, ptr %104, i32 0, i32 33
  store double %103, ptr %105, align 8
  %106 = load ptr, ptr %3, align 8
  %107 = getelementptr inbounds nuw %struct.RestrictInfo, ptr %106, i32 0, i32 33
  %108 = load double, ptr %107, align 8
  %109 = load ptr, ptr %5, align 8
  %110 = getelementptr inbounds nuw %struct.RestrictInfo, ptr %109, i32 0, i32 34
  store double %108, ptr %110, align 8
  %111 = load ptr, ptr %5, align 8
  %112 = getelementptr inbounds nuw %struct.RestrictInfo, ptr %111, i32 0, i32 35
  store i32 0, ptr %112, align 8
  %113 = load ptr, ptr %5, align 8
  %114 = getelementptr inbounds nuw %struct.RestrictInfo, ptr %113, i32 0, i32 36
  store i32 0, ptr %114, align 4
  %115 = load ptr, ptr %5, align 8
  call void @llvm.lifetime.end.p0(i64 8, ptr %7) #6
  call void @llvm.lifetime.end.p0(i64 8, ptr %6) #6
  call void @llvm.lifetime.end.p0(i64 8, ptr %5) #6
  ret ptr %115
}