; Function Attrs: nounwind uwtable
define dso_local noundef ptr @commute_restrictinfo(ptr noundef readonly captures(none) %0, i32 noundef %1) local_unnamed_addr #0 {
  %3 = getelementptr inbounds nuw i8, ptr %0, i64 8
  %4 = load ptr, ptr %3, align 8
  %5 = tail call noundef ptr @palloc0(i64 noundef 48) #5
  store i32 17, ptr %5, align 4
  tail call void @llvm.memcpy.p0.p0.i64(ptr noundef nonnull align 8 dereferenceable(48) %5, ptr noundef nonnull align 8 dereferenceable(48) %4, i64 48, i1 false)
  %6 = getelementptr inbounds nuw i8, ptr %5, i64 4
  store i32 %1, ptr %6, align 4
  %7 = getelementptr inbounds nuw i8, ptr %5, i64 8
  store i32 0, ptr %7, align 8
  %8 = getelementptr inbounds nuw i8, ptr %4, i64 32
  %9 = load ptr, ptr %8, align 8
  %10 = getelementptr i8, ptr %9, i64 16
  %.val = load ptr, ptr %10, align 8
  %11 = getelementptr inbounds nuw i8, ptr %.val, i64 8
  %12 = load ptr, ptr %11, align 8
  %13 = load ptr, ptr %.val, align 8
  %14 = tail call ptr @list_make2_impl(i32 noundef 1, ptr %12, ptr %13) #5
  %15 = getelementptr inbounds nuw i8, ptr %5, i64 32
  store ptr %14, ptr %15, align 8
  %16 = tail call noundef ptr @palloc0(i64 noundef 240) #5
  store i32 317, ptr %16, align 4
  tail call void @llvm.memcpy.p0.p0.i64(ptr noundef nonnull align 8 dereferenceable(240) %16, ptr noundef nonnull align 8 dereferenceable(240) %0, i64 240, i1 false)
  %17 = getelementptr inbounds nuw i8, ptr %16, i64 8
  store ptr %5, ptr %17, align 8
  %18 = getelementptr inbounds nuw i8, ptr %0, i64 80
  %19 = load ptr, ptr %18, align 8
  %20 = getelementptr inbounds nuw i8, ptr %16, i64 72
  store ptr %19, ptr %20, align 8
  %21 = getelementptr inbounds nuw i8, ptr %0, i64 72
  %22 = load ptr, ptr %21, align 8
  %23 = getelementptr inbounds nuw i8, ptr %16, i64 80
  store ptr %22, ptr %23, align 8
  %24 = getelementptr inbounds nuw i8, ptr %0, i64 160
  %25 = load ptr, ptr %24, align 8
  %26 = getelementptr inbounds nuw i8, ptr %16, i64 152
  store ptr %25, ptr %26, align 8
  %27 = getelementptr inbounds nuw i8, ptr %0, i64 152
  %28 = load ptr, ptr %27, align 8
  %29 = getelementptr inbounds nuw i8, ptr %16, i64 160
  store ptr %28, ptr %29, align 8
  %30 = getelementptr inbounds nuw i8, ptr %0, i64 176
  %31 = load ptr, ptr %30, align 8
  %32 = getelementptr inbounds nuw i8, ptr %16, i64 168
  store ptr %31, ptr %32, align 8
  %33 = getelementptr inbounds nuw i8, ptr %0, i64 168
  %34 = load ptr, ptr %33, align 8
  %35 = getelementptr inbounds nuw i8, ptr %16, i64 176
  store ptr %34, ptr %35, align 8
  %36 = getelementptr inbounds nuw i8, ptr %16, i64 184
  store ptr null, ptr %36, align 8
  %37 = getelementptr inbounds nuw i8, ptr %0, i64 196
  %38 = load i32, ptr %37, align 4
  %39 = getelementptr inbounds nuw i8, ptr %4, i64 4
  %40 = load i32, ptr %39, align 4
  %41 = icmp eq i32 %38, %40
  %spec.select = select i1 %41, i32 %1, i32 0
  %42 = getelementptr inbounds nuw i8, ptr %16, i64 196
  store i32 %spec.select, ptr %42, align 4
  %43 = getelementptr inbounds nuw i8, ptr %0, i64 208
  %44 = load double, ptr %43, align 8
  %45 = getelementptr inbounds nuw i8, ptr %16, i64 200
  store double %44, ptr %45, align 8
  %46 = getelementptr inbounds nuw i8, ptr %0, i64 200
  %47 = load double, ptr %46, align 8
  %48 = getelementptr inbounds nuw i8, ptr %16, i64 208
  store double %47, ptr %48, align 8
  %49 = getelementptr inbounds nuw i8, ptr %0, i64 224
  %50 = load double, ptr %49, align 8
  %51 = getelementptr inbounds nuw i8, ptr %16, i64 216
  store double %50, ptr %51, align 8
  %52 = getelementptr inbounds nuw i8, ptr %0, i64 216
  %53 = load double, ptr %52, align 8
  %54 = getelementptr inbounds nuw i8, ptr %16, i64 224
  store double %53, ptr %54, align 8
  %55 = getelementptr inbounds nuw i8, ptr %16, i64 232
  store i32 0, ptr %55, align 8
  %56 = getelementptr inbounds nuw i8, ptr %16, i64 236
  store i32 0, ptr %56, align 4
  ret ptr %16
}